; Function Attrs: nofree norecurse nosync nounwind memory(read, inaccessiblemem: none) uwtable
define ptr @tls1_group_id2name(ptr noundef readonly captures(none) %0, i16 noundef zeroext %1) local_unnamed_addr #5 {
  %3 = getelementptr inbounds nuw i8, ptr %0, i64 1664
  %4 = load i64, ptr %3, align 8, !tbaa !91
  %.not.i = icmp eq i64 %4, 0
  br i1 %.not.i, label %tls1_group_id_lookup.exit.thread, label %.lr.ph.i

.lr.ph.i:                                         ; preds = %2
  %5 = getelementptr inbounds nuw i8, ptr %0, i64 1656
  %6 = load ptr, ptr %5, align 8, !tbaa !92
  br label %9

7:                                                ; preds = %9
  %8 = add nuw i64 %.09.i, 1
  %exitcond.not.i = icmp eq i64 %8, %4
  br i1 %exitcond.not.i, label %tls1_group_id_lookup.exit.thread, label %9, !llvm.loop !119

9:                                                ; preds = %7, %.lr.ph.i
  %.09.i = phi i64 [ 0, %.lr.ph.i ], [ %8, %7 ]
  %10 = getelementptr inbounds nuw %struct.tls_group_info_st, ptr %6, i64 %.09.i
  %11 = getelementptr inbounds nuw i8, ptr %10, i64 28
  %12 = load i16, ptr %11, align 4, !tbaa !96
  %13 = icmp eq i16 %12, %1
  br i1 %13, label %tls1_group_id_lookup.exit, label %7

tls1_group_id_lookup.exit:                        ; preds = %9
  %14 = load ptr, ptr %10, align 8, !tbaa !120
  br label %tls1_group_id_lookup.exit.thread

tls1_group_id_lookup.exit.thread:                 ; preds = %7, %2, %tls1_group_id_lookup.exit
  %.0 = phi ptr [ %14, %tls1_group_id_lookup.exit ], [ null, %2 ], [ null, %7 ]
  ret ptr %.0
}